; Function Attrs: mustprogress uwtable
define hidden void @_ZN7datalog12boogie_proof8pp_substERSoR6vectorISt4pairI6symbolP4exprELb1EjE(ptr nocapture noundef nonnull readonly align 8 dereferenceable(32) %this, ptr noundef nonnull align 8 dereferenceable(8) %out, ptr nocapture noundef nonnull readonly align 8 dereferenceable(8) %s) local_unnamed_addr #3 align 2 {
entry:
  %call = tail call noundef nonnull align 8 dereferenceable(8) ptr @_ZStlsISt11char_traitsIcEERSt13basic_ostreamIcT_ES5_PKc(ptr noundef nonnull align 8 dereferenceable(8) %out, ptr noundef nonnull @.str.6)
  br label %for.cond

for.cond:                                         ; preds = %for.body, %entry
  %indvars.iv = phi i64 [ %indvars.iv.next, %for.body ], [ 0, %entry ]
  %0 = load ptr, ptr %s, align 8
  %cmp.i = icmp eq ptr %0, null
  br i1 %cmp.i, label %_ZNK6vectorISt4pairI6symbolP4exprELb1EjE4sizeEv.exit, label %if.end.i

if.end.i:                                         ; preds = %for.cond
  %arrayidx.i = getelementptr inbounds i8, ptr %0, i64 -4
  %1 = load i32, ptr %arrayidx.i, align 4
  br label %_ZNK6vectorISt4pairI6symbolP4exprELb1EjE4sizeEv.exit

_ZNK6vectorISt4pairI6symbolP4exprELb1EjE4sizeEv.exit: ; preds = %for.cond, %if.end.i
  %retval.0.i = phi i32 [ %1, %if.end.i ], [ 0, %for.cond ]
  %2 = zext i32 %retval.0.i to i64
  %cmp = icmp ult i64 %indvars.iv, %2
  br i1 %cmp, label %for.body, label %for.end

for.body:                                         ; preds = %_ZNK6vectorISt4pairI6symbolP4exprELb1EjE4sizeEv.exit
  %arrayidx.i8 = getelementptr inbounds %"struct.std::pair.68", ptr %0, i64 %indvars.iv
  %second = getelementptr inbounds i8, ptr %arrayidx.i8, i64 8
  %3 = load ptr, ptr %second, align 8
  tail call void @_ZN7datalog12boogie_proof13pp_assignmentERSoRK6symbolP4expr(ptr noundef nonnull align 8 dereferenceable(32) %this, ptr noundef nonnull align 8 dereferenceable(8) %out, ptr noundef nonnull align 8 dereferenceable(8) %arrayidx.i8, ptr noundef %3)
  %indvars.iv.next = add nuw nsw i64 %indvars.iv, 1
  br label %for.cond, !llvm.loop !28

for.end:                                          ; preds = %_ZNK6vectorISt4pairI6symbolP4exprELb1EjE4sizeEv.exit
  %call5 = tail call noundef nonnull align 8 dereferenceable(8) ptr @_ZStlsISt11char_traitsIcEERSt13basic_ostreamIcT_ES5_PKc(ptr noundef nonnull align 8 dereferenceable(8) %out, ptr noundef nonnull @.str.1)
  ret void
}